(dp0
VversionCode
p1
V40
p2
sVversionName
p3
V1.4.0
p4
sVpackingTime
p5
V2019/12/1 13:00
p6
sVsum
p7
I1
sVpass
p8
I1
sVfail
p9
I0
sVtestDate
p10
V2019-12-10 17:40:21
p11
sVtestSumDate
p12
V96\u79d2
p13
s.